; Function Attrs: mustprogress uwtable
define void @_ZN6icu_7518CurrencyPluralInfo9setLocaleERKNS_6LocaleER10UErrorCode(ptr nocapture noundef nonnull align 8 dereferenceable(36) %this, ptr noundef nonnull align 8 dereferenceable(217) %loc, ptr noundef nonnull align 4 dereferenceable(4) %status) local_unnamed_addr #1 align 2 {
entry:
  %0 = load i32, ptr %status, align 4
  %cmp.i.i = icmp slt i32 %0, 1
  br i1 %cmp.i.i, label %if.end.i, label %_ZN6icu_7518CurrencyPluralInfo10initializeERKNS_6LocaleER10UErrorCode.exit

if.end.i:                                         ; preds = %entry
  %fLocale.i = getelementptr inbounds i8, ptr %this, i64 24
  %1 = load ptr, ptr %fLocale.i, align 8
  %isnull.i = icmp eq ptr %1, null
  br i1 %isnull.i, label %delete.end.i, label %delete.notnull.i

delete.notnull.i:                                 ; preds = %if.end.i
  %vtable.i = load ptr, ptr %1, align 8
  %vfn.i = getelementptr inbounds i8, ptr %vtable.i, i64 8
  %2 = load ptr, ptr %vfn.i, align 8
  tail call void %2(ptr noundef nonnull align 8 dereferenceable(217) %1) #10
  br label %delete.end.i

delete.end.i:                                     ; preds = %delete.notnull.i, %if.end.i
  store ptr null, ptr %fLocale.i, align 8
  %fPluralRules.i = getelementptr inbounds i8, ptr %this, i64 16
  %3 = load ptr, ptr %fPluralRules.i, align 8
  %isnull3.i = icmp eq ptr %3, null
  br i1 %isnull3.i, label %delete.end7.i, label %delete.notnull4.i

delete.notnull4.i:                                ; preds = %delete.end.i
  %vtable5.i = load ptr, ptr %3, align 8
  %vfn6.i = getelementptr inbounds i8, ptr %vtable5.i, i64 8
  %4 = load ptr, ptr %vfn6.i, align 8
  tail call void %4(ptr noundef nonnull align 8 dereferenceable(28) %3) #10
  br label %delete.end7.i

delete.end7.i:                                    ; preds = %delete.notnull4.i, %delete.end.i
  store ptr null, ptr %fPluralRules.i, align 8
  %call9.i = tail call noundef ptr @_ZNK6icu_756Locale5cloneEv(ptr noundef nonnull align 8 dereferenceable(217) %loc)
  store ptr %call9.i, ptr %fLocale.i, align 8
  %cmp.i = icmp eq ptr %call9.i, null
  br i1 %cmp.i, label %if.then12.i, label %if.end13.i

if.then12.i:                                      ; preds = %delete.end7.i
  store i32 7, ptr %status, align 4
  br label %_ZN6icu_7518CurrencyPluralInfo10initializeERKNS_6LocaleER10UErrorCode.exit

if.end13.i:                                       ; preds = %delete.end7.i
  %fIsBogus.i.i = getelementptr inbounds i8, ptr %loc, i64 216
  %5 = load i8, ptr %fIsBogus.i.i, align 8
  %tobool15.not.i = icmp eq i8 %5, 0
  br i1 %tobool15.not.i, label %land.lhs.true.i, label %if.end20.i

land.lhs.true.i:                                  ; preds = %if.end13.i
  %fIsBogus.i9.i = getelementptr inbounds i8, ptr %call9.i, i64 216
  %6 = load i8, ptr %fIsBogus.i9.i, align 8
  %tobool18.not.i = icmp eq i8 %6, 0
  br i1 %tobool18.not.i, label %if.end20.i, label %if.then19.i

if.then19.i:                                      ; preds = %land.lhs.true.i
  store i32 7, ptr %status, align 4
  br label %_ZN6icu_7518CurrencyPluralInfo10initializeERKNS_6LocaleER10UErrorCode.exit

if.end20.i:                                       ; preds = %land.lhs.true.i, %if.end13.i
  %call21.i = tail call noundef ptr @_ZN6icu_7511PluralRules9forLocaleERKNS_6LocaleER10UErrorCode(ptr noundef nonnull align 8 dereferenceable(217) %loc, ptr noundef nonnull align 4 dereferenceable(4) %status)
  store ptr %call21.i, ptr %fPluralRules.i, align 8
  tail call void @_ZN6icu_7518CurrencyPluralInfo26setupCurrencyPluralPatternERKNS_6LocaleER10UErrorCode(ptr noundef nonnull align 8 dereferenceable(36) %this, ptr noundef nonnull align 8 dereferenceable(217) %loc, ptr noundef nonnull align 4 dereferenceable(4) %status)
  br label %_ZN6icu_7518CurrencyPluralInfo10initializeERKNS_6LocaleER10UErrorCode.exit

_ZN6icu_7518CurrencyPluralInfo10initializeERKNS_6LocaleER10UErrorCode.exit: ; preds = %entry, %if.then12.i, %if.then19.i, %if.end20.i
  ret void
}